; Function Attrs: nounwind uwtable
define ptr @l_Array_foldrMUnsafe_fold___at_Lean_LocalContext_foldr___spec__16___rarg(ptr noundef %0, ptr noundef readonly captures(none) %1, i64 noundef %2, i64 noundef %3, ptr noundef %4) local_unnamed_addr #2 {
  %.not37 = icmp eq i64 %2, %3
  br i1 %.not37, label %._crit_edge, label %.lr.ph

.lr.ph:                                           ; preds = %5
  %6 = getelementptr inbounds nuw i8, ptr %1, i64 24
  %7 = ptrtoint ptr %0 to i64
  %8 = and i64 %7, 1
  %.not35 = icmp eq i64 %8, 0
  br i1 %.not35, label %.lr.ph.split.us, label %.lr.ph.split

.lr.ph.split.us:                                  ; preds = %.lr.ph, %lean_dec.exit22.us
  %.01839.us = phi i64 [ %9, %lean_dec.exit22.us ], [ %2, %.lr.ph ]
  %.02038.us = phi ptr [ %25, %lean_dec.exit22.us ], [ %4, %.lr.ph ]
  %9 = add i64 %.01839.us, -1
  %10 = getelementptr inbounds nuw [0 x ptr], ptr %6, i64 0, i64 %9
  %11 = load ptr, ptr %10, align 8, !tbaa !9
  %12 = ptrtoint ptr %11 to i64
  %13 = and i64 %12, 1
  %.not.i25.us = icmp eq i64 %13, 0
  br i1 %.not.i25.us, label %14, label %lean_array_uget.exit.us

14:                                               ; preds = %.lr.ph.split.us
  %.val.i.i.us = load i32, ptr %11, align 4, !tbaa !4
  %15 = icmp sgt i32 %.val.i.i.us, 0
  br i1 %15, label %18, label %16, !prof !11

16:                                               ; preds = %14
  %.not.i.i.us = icmp eq i32 %.val.i.i.us, 0
  br i1 %.not.i.i.us, label %lean_array_uget.exit.us, label %17

17:                                               ; preds = %16
  tail call void @lean_inc_ref_cold(ptr noundef nonnull %11) #8
  br label %lean_array_uget.exit.us

18:                                               ; preds = %14
  %19 = add nuw i32 %.val.i.i.us, 1
  store i32 %19, ptr %11, align 4, !tbaa !4
  br label %lean_array_uget.exit.us

lean_array_uget.exit.us:                          ; preds = %18, %17, %16, %.lr.ph.split.us
  %.val.i.us = load i32, ptr %0, align 4, !tbaa !4
  %20 = icmp sgt i32 %.val.i.us, 0
  br i1 %20, label %23, label %21, !prof !11

21:                                               ; preds = %lean_array_uget.exit.us
  %.not.i26.us = icmp eq i32 %.val.i.us, 0
  br i1 %.not.i26.us, label %lean_inc.exit.us, label %22

22:                                               ; preds = %21
  tail call void @lean_inc_ref_cold(ptr noundef nonnull %0) #8
  br label %lean_inc.exit.us

23:                                               ; preds = %lean_array_uget.exit.us
  %24 = add nuw i32 %.val.i.us, 1
  store i32 %24, ptr %0, align 4, !tbaa !4
  br label %lean_inc.exit.us

lean_inc.exit.us:                                 ; preds = %23, %22, %21
  %25 = tail call ptr @l___private_Lean_Data_PersistentArray_0__Lean_PersistentArray_foldrMAux___at_Lean_LocalContext_foldr___spec__14___rarg(ptr noundef nonnull %0, ptr noundef %11, ptr noundef %.02038.us)
  br i1 %.not.i25.us, label %26, label %lean_dec.exit22.us

26:                                               ; preds = %lean_inc.exit.us
  %27 = load i32, ptr %11, align 4, !tbaa !4
  %28 = icmp sgt i32 %27, 1
  br i1 %28, label %31, label %29, !prof !11

29:                                               ; preds = %26
  %.not.i.us = icmp eq i32 %27, 0
  br i1 %.not.i.us, label %lean_dec.exit22.us, label %30

30:                                               ; preds = %29
  tail call void @lean_dec_ref_cold(ptr noundef nonnull %11) #8
  br label %lean_dec.exit22.us

31:                                               ; preds = %26
  %32 = add nsw i32 %27, -1
  store i32 %32, ptr %11, align 4, !tbaa !4
  br label %lean_dec.exit22.us

lean_dec.exit22.us:                               ; preds = %31, %30, %29, %lean_inc.exit.us
  %.not.us = icmp eq i64 %9, %3
  br i1 %.not.us, label %._crit_edge.thread, label %.lr.ph.split.us

.lr.ph.split:                                     ; preds = %.lr.ph, %lean_dec.exit22
  %.01839 = phi i64 [ %33, %lean_dec.exit22 ], [ %2, %.lr.ph ]
  %.02038 = phi ptr [ %60, %lean_dec.exit22 ], [ %4, %.lr.ph ]
  %33 = add i64 %.01839, -1
  %34 = getelementptr inbounds nuw [0 x ptr], ptr %6, i64 0, i64 %33
  %35 = load ptr, ptr %34, align 8, !tbaa !9
  %36 = ptrtoint ptr %35 to i64
  %37 = and i64 %36, 1
  %.not.i25 = icmp eq i64 %37, 0
  br i1 %.not.i25, label %38, label %lean_array_uget.exit

38:                                               ; preds = %.lr.ph.split
  %.val.i.i = load i32, ptr %35, align 4, !tbaa !4
  %39 = icmp sgt i32 %.val.i.i, 0
  br i1 %39, label %40, label %42, !prof !11

40:                                               ; preds = %38
  %41 = add nuw i32 %.val.i.i, 1
  store i32 %41, ptr %35, align 4, !tbaa !4
  br label %45

42:                                               ; preds = %38
  %.not.i.i = icmp eq i32 %.val.i.i, 0
  br i1 %.not.i.i, label %45, label %43

43:                                               ; preds = %42
  tail call void @lean_inc_ref_cold(ptr noundef nonnull %35) #8
  br label %45

lean_array_uget.exit:                             ; preds = %.lr.ph.split
  %44 = tail call ptr @l___private_Lean_Data_PersistentArray_0__Lean_PersistentArray_foldrMAux___at_Lean_LocalContext_foldr___spec__14___rarg(ptr noundef %0, ptr noundef %35, ptr noundef %.02038)
  br label %lean_dec.exit22

45:                                               ; preds = %40, %42, %43
  %46 = tail call ptr @l___private_Lean_Data_PersistentArray_0__Lean_PersistentArray_foldrMAux___at_Lean_LocalContext_foldr___spec__14___rarg(ptr noundef %0, ptr noundef nonnull %35, ptr noundef %.02038)
  %47 = load i32, ptr %35, align 4, !tbaa !4
  %48 = icmp sgt i32 %47, 1
  br i1 %48, label %49, label %51, !prof !11

49:                                               ; preds = %45
  %50 = add nsw i32 %47, -1
  store i32 %50, ptr %35, align 4, !tbaa !4
  br label %lean_dec.exit22

51:                                               ; preds = %45
  %.not.i = icmp eq i32 %47, 0
  br i1 %.not.i, label %lean_dec.exit22, label %52

52:                                               ; preds = %51
  tail call void @lean_dec_ref_cold(ptr noundef nonnull %35) #8
  br label %lean_dec.exit22

._crit_edge:                                      ; preds = %5
  %.pre = ptrtoint ptr %0 to i64
  %.pre42 = and i64 %.pre, 1
  %53 = icmp eq i64 %.pre42, 0
  br i1 %53, label %._crit_edge.thread, label %._crit_edge.thread48

._crit_edge.thread:                               ; preds = %lean_dec.exit22.us, %._crit_edge
  %.020.lcssa47 = phi ptr [ %4, %._crit_edge ], [ %25, %lean_dec.exit22.us ]
  %54 = load i32, ptr %0, align 4, !tbaa !4
  %55 = icmp sgt i32 %54, 1
  br i1 %55, label %56, label %58, !prof !11

56:                                               ; preds = %._crit_edge.thread
  %57 = add nsw i32 %54, -1
  store i32 %57, ptr %0, align 4, !tbaa !4
  br label %._crit_edge.thread48

58:                                               ; preds = %._crit_edge.thread
  %.not.i23 = icmp eq i32 %54, 0
  br i1 %.not.i23, label %._crit_edge.thread48, label %59

59:                                               ; preds = %58
  tail call void @lean_dec_ref_cold(ptr noundef nonnull %0) #8
  br label %._crit_edge.thread48

lean_dec.exit22:                                  ; preds = %lean_array_uget.exit, %49, %51, %52
  %60 = phi ptr [ %44, %lean_array_uget.exit ], [ %46, %49 ], [ %46, %51 ], [ %46, %52 ]
  %.not = icmp eq i64 %33, %3
  br i1 %.not, label %._crit_edge.thread48, label %.lr.ph.split

._crit_edge.thread48:                             ; preds = %lean_dec.exit22, %59, %58, %56, %._crit_edge
  %.020.lcssa46 = phi ptr [ %.020.lcssa47, %59 ], [ %.020.lcssa47, %58 ], [ %.020.lcssa47, %56 ], [ %4, %._crit_edge ], [ %60, %lean_dec.exit22 ]
  ret ptr %.020.lcssa46
}